target datalayout = "e-m:e-p270:32:32-p271:32:32-p272:64:64-i64:64-i128:128-f80:128-n8:16:32:64-S128"
target triple = "x86_64-pc-linux-gnu"

; Function Attrs: mustprogress nounwind uwtable
define internal noundef double @_ZL10lmc_erffitdPKd(double noundef %0, ptr noundef %1) #0 {
  %3 = alloca double, align 8
  %4 = alloca ptr, align 8
  %5 = alloca double, align 8
  %6 = alloca double, align 8
  store double %0, ptr %3, align 8, !tbaa !16
  store ptr %1, ptr %4, align 8, !tbaa !18
  call void @llvm.lifetime.start.p0(i64 8, ptr %5) #14
  call void @llvm.lifetime.start.p0(i64 8, ptr %6) #14
  %7 = load ptr, ptr %4, align 8, !tbaa !18
  %8 = getelementptr inbounds double, ptr %7, i64 3
  %9 = load double, ptr %8, align 8, !tbaa !16
  %10 = fcmp une double %9, 0.000000e+00
  br i1 %10, label %11, label %27

11:                                               ; preds = %2
  %12 = load double, ptr %3, align 8, !tbaa !16
  %13 = load ptr, ptr %4, align 8, !tbaa !18
  %14 = getelementptr inbounds double, ptr %13, i64 2
  %15 = load double, ptr %14, align 8, !tbaa !16
  %16 = fsub double %12, %15
  %17 = load ptr, ptr %4, align 8, !tbaa !18
  %18 = getelementptr inbounds double, ptr %17, i64 3
  %19 = load double, ptr %18, align 8, !tbaa !16
  %20 = load ptr, ptr %4, align 8, !tbaa !18
  %21 = getelementptr inbounds double, ptr %20, i64 3
  %22 = load double, ptr %21, align 8, !tbaa !16
  %23 = fmul double %19, %22
  %24 = fdiv double %16, %23
  store double %24, ptr %5, align 8, !tbaa !16
  %25 = load double, ptr %5, align 8, !tbaa !16
  %26 = call double @erf(double noundef %25) #14, !tbaa !4
  store double %26, ptr %6, align 8, !tbaa !16
  br label %36

27:                                               ; preds = %2
  %28 = load double, ptr %3, align 8, !tbaa !16
  %29 = load ptr, ptr %4, align 8, !tbaa !18
  %30 = getelementptr inbounds double, ptr %29, i64 2
  %31 = load double, ptr %30, align 8, !tbaa !16
  %32 = fcmp olt double %28, %31
  br i1 %32, label %33, label %34

33:                                               ; preds = %27
  store double -1.000000e+00, ptr %6, align 8, !tbaa !16
  br label %35

34:                                               ; preds = %27
  store double 1.000000e+00, ptr %6, align 8, !tbaa !16
  br label %35

35:                                               ; preds = %34, %33
  br label %36

36:                                               ; preds = %35, %11
  %37 = load ptr, ptr %4, align 8, !tbaa !18
  %38 = getelementptr inbounds double, ptr %37, i64 0
  %39 = load double, ptr %38, align 8, !tbaa !16
  %40 = load ptr, ptr %4, align 8, !tbaa !18
  %41 = getelementptr inbounds double, ptr %40, i64 1
  %42 = load double, ptr %41, align 8, !tbaa !16
  %43 = fadd double %39, %42
  %44 = load ptr, ptr %4, align 8, !tbaa !18
  %45 = getelementptr inbounds double, ptr %44, i64 0
  %46 = load double, ptr %45, align 8, !tbaa !16
  %47 = load ptr, ptr %4, align 8, !tbaa !18
  %48 = getelementptr inbounds double, ptr %47, i64 1
  %49 = load double, ptr %48, align 8, !tbaa !16
  %50 = fsub double %46, %49
  %51 = load double, ptr %6, align 8, !tbaa !16
  %52 = fneg double %50
  %53 = call double @llvm.fmuladd.f64(double %52, double %51, double %43)
  %54 = fmul double 5.000000e-01, %53
  call void @llvm.lifetime.end.p0(i64 8, ptr %6) #14
  call void @llvm.lifetime.end.p0(i64 8, ptr %5) #14
  ret double %54
}