; Function Attrs: mustprogress nofree nounwind willreturn memory(write, argmem: readwrite) uwtable
define internal noundef double @_ZL10lmc_erffitdPKd(double noundef %0, ptr noundef readonly captures(none) %1) #4 {
  %3 = getelementptr inbounds nuw i8, ptr %1, i64 24
  %4 = load double, ptr %3, align 8, !tbaa !13
  %5 = fcmp une double %4, 0.000000e+00
  %6 = getelementptr inbounds nuw i8, ptr %1, i64 16
  %7 = load double, ptr %6, align 8, !tbaa !13
  br i1 %5, label %8, label %13

8:                                                ; preds = %2
  %9 = fsub double %0, %7
  %10 = fmul double %4, %4
  %11 = fdiv double %9, %10
  %12 = tail call double @erf(double noundef %11) #18, !tbaa !4
  br label %15

13:                                               ; preds = %2
  %14 = fcmp olt double %0, %7
  %. = select i1 %14, double -1.000000e+00, double 1.000000e+00
  br label %15

15:                                               ; preds = %13, %8
  %.0 = phi double [ %12, %8 ], [ %., %13 ]
  %16 = load double, ptr %1, align 8, !tbaa !13
  %17 = getelementptr inbounds nuw i8, ptr %1, i64 8
  %18 = load double, ptr %17, align 8, !tbaa !13
  %19 = fadd double %16, %18
  %20 = fsub double %16, %18
  %21 = fneg double %20
  %22 = tail call double @llvm.fmuladd.f64(double %21, double %.0, double %19)
  %23 = fmul double %22, 5.000000e-01
  ret double %23
}